; Function Attrs: nounwind uwtable
define hidden void @VP8Delete(ptr noundef %0) local_unnamed_addr #3 {
  %.not = icmp eq ptr %0, null
  br i1 %.not, label %10, label %VP8Clear.exit

VP8Clear.exit:                                    ; preds = %1
  %2 = tail call ptr @WebPGetWorkerInterface() #13
  %3 = getelementptr inbounds nuw i8, ptr %2, i64 40
  %4 = load ptr, ptr %3, align 8, !tbaa !29
  %5 = getelementptr inbounds nuw i8, ptr %0, i64 152
  tail call void %4(ptr noundef nonnull %5) #13
  tail call void @WebPDeallocateAlphaMemory(ptr noundef nonnull %0) #13
  %6 = getelementptr inbounds nuw i8, ptr %0, i64 2888
  %7 = load ptr, ptr %6, align 8, !tbaa !30
  tail call void @WebPSafeFree(ptr noundef %7) #13
  %8 = getelementptr inbounds nuw i8, ptr %0, i64 16
  tail call void @llvm.memset.p0.i64(ptr noundef nonnull align 8 dereferenceable(48) %8, i8 0, i64 48, i1 false)
  %9 = getelementptr inbounds nuw i8, ptr %0, i64 4
  store i32 0, ptr %9, align 4, !tbaa !26
  tail call void @llvm.memset.p0.i64(ptr noundef nonnull align 8 dereferenceable(16) %6, i8 0, i64 16, i1 false)
  tail call void @WebPSafeFree(ptr noundef nonnull %0) #13
  br label %10

10:                                               ; preds = %VP8Clear.exit, %1
  ret void
}